target datalayout = "e-m:e-p270:32:32-p271:32:32-p272:64:64-i64:64-f80:128-n8:16:32:64-S128"
target triple = "x86_64-pc-linux-gnu"

@.str = private unnamed_addr constant [3 x i8] c"%d\00", align 1
@.str.1 = private unnamed_addr constant [18 x i8] c"%s %d %d %c %c %d\00", align 1
@.str.2 = private unnamed_addr constant [4 x i8] c"%s\0A\00", align 1
@.str.3 = private unnamed_addr constant [4 x i8] c"%d\0A\00", align 1

; Function Attrs: noinline nounwind uwtable
define dso_local i32 @main() #0 {
  %1 = alloca i32, align 4
  %2 = alloca i32, align 4
  %3 = alloca i32, align 4
  %4 = alloca i32, align 4
  %5 = alloca i32, align 4
  %6 = alloca i32, align 4
  %7 = alloca [100 x i32], align 16
  %8 = alloca [100 x i32], align 16
  %9 = alloca i32, align 4
  %10 = alloca i8, align 1
  %11 = alloca i8, align 1
  %12 = alloca [100 x [20 x i8]], align 16
  store i32 0, i32* %1, align 4
  store i32 0, i32* %9, align 4
  %13 = call i32 (i8*, ...) @__isoc99_scanf(i8* getelementptr inbounds ([3 x i8], [3 x i8]* @.str, i64 0, i64 0), i32* %2)
  store i32 0, i32* %3, align 4
  br label %14

14:                                               ; preds = %101, %0
  %15 = load i32, i32* %3, align 4
  %16 = load i32, i32* %2, align 4
  %17 = icmp slt i32 %15, %16
  br i1 %17, label %18, label %104

18:                                               ; preds = %14
  %19 = load i32, i32* %3, align 4
  %20 = sext i32 %19 to i64
  %21 = getelementptr inbounds [100 x i32], [100 x i32]* %7, i64 0, i64 %20
  store i32 0, i32* %21, align 4
  %22 = load i32, i32* %3, align 4
  %23 = sext i32 %22 to i64
  %24 = getelementptr inbounds [100 x [20 x i8]], [100 x [20 x i8]]* %12, i64 0, i64 %23
  %25 = getelementptr inbounds [20 x i8], [20 x i8]* %24, i64 0, i64 0
  %26 = call i32 (i8*, ...) @__isoc99_scanf(i8* getelementptr inbounds ([18 x i8], [18 x i8]* @.str.1, i64 0, i64 0), i8* %25, i32* %4, i32* %5, i8* %10, i8* %11, i32* %6)
  %27 = load i32, i32* %4, align 4
  %28 = icmp sgt i32 %27, 80
  br i1 %28, label %29, label %41

29:                                               ; preds = %18
  %30 = load i32, i32* %6, align 4
  %31 = icmp sge i32 %30, 1
  br i1 %31, label %32, label %41

32:                                               ; preds = %29
  %33 = load i32, i32* %3, align 4
  %34 = sext i32 %33 to i64
  %35 = getelementptr inbounds [100 x i32], [100 x i32]* %7, i64 0, i64 %34
  %36 = load i32, i32* %35, align 4
  %37 = add nsw i32 %36, 8000
  %38 = load i32, i32* %3, align 4
  %39 = sext i32 %38 to i64
  %40 = getelementptr inbounds [100 x i32], [100 x i32]* %7, i64 0, i64 %39
  store i32 %37, i32* %40, align 4
  br label %41

41:                                               ; preds = %32, %29, %18
  %42 = load i32, i32* %4, align 4
  %43 = icmp sgt i32 %42, 85
  br i1 %43, label %44, label %56

44:                                               ; preds = %41
  %45 = load i32, i32* %5, align 4
  %46 = icmp sgt i32 %45, 80
  br i1 %46, label %47, label %56

47:                                               ; preds = %44
  %48 = load i32, i32* %3, align 4
  %49 = sext i32 %48 to i64
  %50 = getelementptr inbounds [100 x i32], [100 x i32]* %7, i64 0, i64 %49
  %51 = load i32, i32* %50, align 4
  %52 = add nsw i32 %51, 4000
  %53 = load i32, i32* %3, align 4
  %54 = sext i32 %53 to i64
  %55 = getelementptr inbounds [100 x i32], [100 x i32]* %7, i64 0, i64 %54
  store i32 %52, i32* %55, align 4
  br label %56

56:                                               ; preds = %47, %44, %41
  %57 = load i32, i32* %4, align 4
  %58 = icmp sgt i32 %57, 90
  br i1 %58, label %59, label %68

59:                                               ; preds = %56
  %60 = load i32, i32* %3, align 4
  %61 = sext i32 %60 to i64
  %62 = getelementptr inbounds [100 x i32], [100 x i32]* %7, i64 0, i64 %61
  %63 = load i32, i32* %62, align 4
  %64 = add nsw i32 %63, 2000
  %65 = load i32, i32* %3, align 4
  %66 = sext i32 %65 to i64
  %67 = getelementptr inbounds [100 x i32], [100 x i32]* %7, i64 0, i64 %66
  store i32 %64, i32* %67, align 4
  br label %68

68:                                               ; preds = %59, %56
  %69 = load i8, i8* %11, align 1
  %70 = sext i8 %69 to i32
  %71 = icmp eq i32 %70, 89
  br i1 %71, label %72, label %84

72:                                               ; preds = %68
  %73 = load i32, i32* %4, align 4
  %74 = icmp sgt i32 %73, 85
  br i1 %74, label %75, label %84

75:                                               ; preds = %72
  %76 = load i32, i32* %3, align 4
  %77 = sext i32 %76 to i64
  %78 = getelementptr inbounds [100 x i32], [100 x i32]* %7, i64 0, i64 %77
  %79 = load i32, i32* %78, align 4
  %80 = add nsw i32 %79, 1000
  %81 = load i32, i32* %3, align 4
  %82 = sext i32 %81 to i64
  %83 = getelementptr inbounds [100 x i32], [100 x i32]* %7, i64 0, i64 %82
  store i32 %80, i32* %83, align 4
  br label %84

84:                                               ; preds = %75, %72, %68
  %85 = load i8, i8* %10, align 1
  %86 = sext i8 %85 to i32
  %87 = icmp eq i32 %86, 89
  br i1 %87, label %88, label %100

88:                                               ; preds = %84
  %89 = load i32, i32* %5, align 4
  %90 = icmp sgt i32 %89, 80
  br i1 %90, label %91, label %100

91:                                               ; preds = %88
  %92 = load i32, i32* %3, align 4
  %93 = sext i32 %92 to i64
  %94 = getelementptr inbounds [100 x i32], [100 x i32]* %7, i64 0, i64 %93
  %95 = load i32, i32* %94, align 4
  %96 = add nsw i32 %95, 850
  %97 = load i32, i32* %3, align 4
  %98 = sext i32 %97 to i64
  %99 = getelementptr inbounds [100 x i32], [100 x i32]* %7, i64 0, i64 %98
  store i32 %96, i32* %99, align 4
  br label %100

100:                                              ; preds = %91, %88, %84
  br label %101

101:                                              ; preds = %100
  %102 = load i32, i32* %3, align 4
  %103 = add nsw i32 %102, 1
  store i32 %103, i32* %3, align 4
  br label %14

104:                                              ; preds = %14
  store i32 0, i32* %3, align 4
  br label %105

105:                                              ; preds = %123, %104
  %106 = load i32, i32* %3, align 4
  %107 = load i32, i32* %2, align 4
  %108 = icmp slt i32 %106, %107
  br i1 %108, label %109, label %126

109:                                              ; preds = %105
  %110 = load i32, i32* %9, align 4
  %111 = load i32, i32* %3, align 4
  %112 = sext i32 %111 to i64
  %113 = getelementptr inbounds [100 x i32], [100 x i32]* %7, i64 0, i64 %112
  %114 = load i32, i32* %113, align 4
  %115 = add nsw i32 %110, %114
  store i32 %115, i32* %9, align 4
  %116 = load i32, i32* %3, align 4
  %117 = sext i32 %116 to i64
  %118 = getelementptr inbounds [100 x i32], [100 x i32]* %7, i64 0, i64 %117
  %119 = load i32, i32* %118, align 4
  %120 = load i32, i32* %3, align 4
  %121 = sext i32 %120 to i64
  %122 = getelementptr inbounds [100 x i32], [100 x i32]* %8, i64 0, i64 %121
  store i32 %119, i32* %122, align 4
  br label %123

123:                                              ; preds = %109
  %124 = load i32, i32* %3, align 4
  %125 = add nsw i32 %124, 1
  store i32 %125, i32* %3, align 4
  br label %105

126:                                              ; preds = %105
  store i32 0, i32* %3, align 4
  br label %127

127:                                              ; preds = %152, %126
  %128 = load i32, i32* %3, align 4
  %129 = load i32, i32* %2, align 4
  %130 = icmp slt i32 %128, %129
  br i1 %130, label %131, label %155

131:                                              ; preds = %127
  %132 = load i32, i32* %3, align 4
  %133 = sext i32 %132 to i64
  %134 = getelementptr inbounds [100 x i32], [100 x i32]* %7, i64 0, i64 %133
  %135 = load i32, i32* %134, align 4
  %136 = load i32, i32* %3, align 4
  %137 = add nsw i32 %136, 1
  %138 = sext i32 %137 to i64
  %139 = getelementptr inbounds [100 x i32], [100 x i32]* %7, i64 0, i64 %138
  %140 = load i32, i32* %139, align 4
  %141 = icmp sgt i32 %135, %140
  br i1 %141, label %142, label %151

142:                                              ; preds = %131
  %143 = load i32, i32* %3, align 4
  %144 = sext i32 %143 to i64
  %145 = getelementptr inbounds [100 x i32], [100 x i32]* %7, i64 0, i64 %144
  %146 = load i32, i32* %145, align 4
  %147 = load i32, i32* %3, align 4
  %148 = add nsw i32 %147, 1
  %149 = sext i32 %148 to i64
  %150 = getelementptr inbounds [100 x i32], [100 x i32]* %7, i64 0, i64 %149
  store i32 %146, i32* %150, align 4
  br label %151

151:                                              ; preds = %142, %131
  br label %152

152:                                              ; preds = %151
  %153 = load i32, i32* %3, align 4
  %154 = add nsw i32 %153, 1
  store i32 %154, i32* %3, align 4
  br label %127

155:                                              ; preds = %127
  store i32 0, i32* %3, align 4
  br label %156

156:                                              ; preds = %184, %155
  %157 = load i32, i32* %3, align 4
  %158 = load i32, i32* %2, align 4
  %159 = icmp slt i32 %157, %158
  br i1 %159, label %160, label %187

160:                                              ; preds = %156
  %161 = load i32, i32* %3, align 4
  %162 = sext i32 %161 to i64
  %163 = getelementptr inbounds [100 x i32], [100 x i32]* %8, i64 0, i64 %162
  %164 = load i32, i32* %163, align 4
  %165 = load i32, i32* %2, align 4
  %166 = sub nsw i32 %165, 1
  %167 = sext i32 %166 to i64
  %168 = getelementptr inbounds [100 x i32], [100 x i32]* %7, i64 0, i64 %167
  %169 = load i32, i32* %168, align 4
  %170 = icmp eq i32 %164, %169
  br i1 %170, label %171, label %183

171:                                              ; preds = %160
  %172 = load i32, i32* %3, align 4
  %173 = sext i32 %172 to i64
  %174 = getelementptr inbounds [100 x [20 x i8]], [100 x [20 x i8]]* %12, i64 0, i64 %173
  %175 = getelementptr inbounds [20 x i8], [20 x i8]* %174, i64 0, i64 0
  %176 = call i32 (i8*, ...) @printf(i8* getelementptr inbounds ([4 x i8], [4 x i8]* @.str.2, i64 0, i64 0), i8* %175)
  %177 = load i32, i32* %2, align 4
  %178 = sub nsw i32 %177, 1
  %179 = sext i32 %178 to i64
  %180 = getelementptr inbounds [100 x i32], [100 x i32]* %7, i64 0, i64 %179
  %181 = load i32, i32* %180, align 4
  %182 = call i32 (i8*, ...) @printf(i8* getelementptr inbounds ([4 x i8], [4 x i8]* @.str.3, i64 0, i64 0), i32 %181)
  br label %187

183:                                              ; preds = %160
  br label %184

184:                                              ; preds = %183
  %185 = load i32, i32* %3, align 4
  %186 = add nsw i32 %185, 1
  store i32 %186, i32* %3, align 4
  br label %156

187:                                              ; preds = %171, %156
  %188 = load i32, i32* %9, align 4
  %189 = call i32 (i8*, ...) @printf(i8* getelementptr inbounds ([4 x i8], [4 x i8]* @.str.3, i64 0, i64 0), i32 %188)
  ret i32 0
}